target datalayout = "e-m:e-p270:32:32-p271:32:32-p272:64:64-i64:64-i128:128-f80:128-n8:16:32:64-S128"
target triple = "x86_64-pc-linux-gnu"

%struct._zval_struct = type { %union._zend_value, %union.anon, %union.anon.2 }
%union._zend_value = type { i64 }
%union.anon = type { i32 }
%union.anon.2 = type { i32 }
%struct._zend_reference = type { %struct._zend_refcounted_h, %struct._zval_struct, %union.zend_property_info_source_list }
%struct._zend_refcounted_h = type { i32, %union.anon.3 }
%union.anon.3 = type { i32 }
%union.zend_property_info_source_list = type { ptr }
%struct.PHP_MURMUR3F_CTX = type { [2 x i64], [2 x i64], i32 }

@.str.2 = private unnamed_addr constant [5 x i8] c"seed\00", align 1

; Function Attrs: nounwind uwtable
define void @PHP_MURMUR3FInit(ptr noundef %0, ptr noundef %1) #0 {
  %3 = alloca ptr, align 8
  %4 = alloca ptr, align 8
  %5 = alloca ptr, align 8
  %6 = alloca ptr, align 8
  %7 = alloca i64, align 8
  %8 = alloca ptr, align 8
  %9 = alloca ptr, align 8
  %10 = alloca ptr, align 8
  %11 = alloca ptr, align 8
  %12 = alloca i64, align 8
  store ptr %0, ptr %9, align 8
  store ptr %1, ptr %10, align 8
  %13 = load ptr, ptr %10, align 8
  %14 = icmp ne ptr %13, null
  br i1 %14, label %15, label %62

15:                                               ; preds = %2
  %16 = load ptr, ptr %10, align 8
  store ptr %16, ptr %5, align 8
  store ptr @.str.2, ptr %6, align 8
  store i64 4, ptr %7, align 8
  %17 = load ptr, ptr %5, align 8
  %18 = load ptr, ptr %6, align 8
  %19 = load i64, ptr %7, align 8
  %20 = call ptr @zend_hash_str_find(ptr noundef %17, ptr noundef %18, i64 noundef %19) #4
  store ptr %20, ptr %8, align 8
  %21 = load ptr, ptr %8, align 8
  %22 = icmp ne ptr %21, null
  br i1 %22, label %23, label %35

23:                                               ; preds = %15
  %24 = load ptr, ptr %8, align 8
  store ptr %24, ptr %4, align 8
  %25 = load ptr, ptr %4, align 8
  %26 = getelementptr inbounds %struct._zval_struct, ptr %25, i32 0, i32 1
  %27 = load i8, ptr %26, align 8
  %28 = zext i8 %27 to i32
  %29 = icmp eq i32 %28, 10
  br i1 %29, label %30, label %34

30:                                               ; preds = %23
  %31 = load ptr, ptr %8, align 8
  %32 = load ptr, ptr %31, align 8
  %33 = getelementptr inbounds %struct._zend_reference, ptr %32, i32 0, i32 1
  store ptr %33, ptr %8, align 8
  br label %34

34:                                               ; preds = %30, %23
  br label %35

35:                                               ; preds = %34, %15
  %36 = load ptr, ptr %8, align 8
  store ptr %36, ptr %11, align 8
  %37 = load ptr, ptr %11, align 8
  %38 = icmp ne ptr %37, null
  br i1 %38, label %39, label %58

39:                                               ; preds = %35
  %40 = load ptr, ptr %11, align 8
  store ptr %40, ptr %3, align 8
  %41 = load ptr, ptr %3, align 8
  %42 = getelementptr inbounds %struct._zval_struct, ptr %41, i32 0, i32 1
  %43 = load i8, ptr %42, align 8
  %44 = zext i8 %43 to i32
  %45 = icmp eq i32 4, %44
  br i1 %45, label %46, label %58

46:                                               ; preds = %39
  %47 = load ptr, ptr %11, align 8
  %48 = getelementptr inbounds %struct._zval_struct, ptr %47, i32 0, i32 0
  %49 = load i64, ptr %48, align 8
  store i64 %49, ptr %12, align 8
  %50 = load i64, ptr %12, align 8
  %51 = load ptr, ptr %9, align 8
  %52 = getelementptr inbounds %struct.PHP_MURMUR3F_CTX, ptr %51, i32 0, i32 0
  %53 = getelementptr inbounds [2 x i64], ptr %52, i64 0, i64 0
  store i64 %50, ptr %53, align 8
  %54 = load i64, ptr %12, align 8
  %55 = load ptr, ptr %9, align 8
  %56 = getelementptr inbounds %struct.PHP_MURMUR3F_CTX, ptr %55, i32 0, i32 0
  %57 = getelementptr inbounds [2 x i64], ptr %56, i64 0, i64 1
  store i64 %54, ptr %57, align 8
  br label %61

58:                                               ; preds = %39, %35
  %59 = load ptr, ptr %9, align 8
  %60 = getelementptr inbounds %struct.PHP_MURMUR3F_CTX, ptr %59, i32 0, i32 0
  call void @llvm.memset.p0.i64(ptr align 8 %60, i8 0, i64 16, i1 false)
  br label %61

61:                                               ; preds = %58, %46
  br label %65

62:                                               ; preds = %2
  %63 = load ptr, ptr %9, align 8
  %64 = getelementptr inbounds %struct.PHP_MURMUR3F_CTX, ptr %63, i32 0, i32 0
  call void @llvm.memset.p0.i64(ptr align 8 %64, i8 0, i64 16, i1 false)
  br label %65

65:                                               ; preds = %62, %61
  %66 = load ptr, ptr %9, align 8
  %67 = getelementptr inbounds %struct.PHP_MURMUR3F_CTX, ptr %66, i32 0, i32 1
  call void @llvm.memset.p0.i64(ptr align 8 %67, i8 0, i64 16, i1 false)
  %68 = load ptr, ptr %9, align 8
  %69 = getelementptr inbounds %struct.PHP_MURMUR3F_CTX, ptr %68, i32 0, i32 2
  store i32 0, ptr %69, align 8
  ret void
}